; Function Attrs: mustprogress uwtable
define void @_ZN6icu_7522UTF16CollationIterator13resetToOffsetEi(ptr noundef nonnull align 8 dereferenceable(416) %this, i32 noundef %newOffset) unnamed_addr #1 align 2 {
entry:
  tail call void @_ZN6icu_7517CollationIterator5resetEv(ptr noundef nonnull align 8 dereferenceable(389) %this)
  %start = getelementptr inbounds i8, ptr %this, i64 392
  %0 = load ptr, ptr %start, align 8
  %idx.ext = sext i32 %newOffset to i64
  %add.ptr = getelementptr inbounds i16, ptr %0, i64 %idx.ext
  %pos = getelementptr inbounds i8, ptr %this, i64 400
  store ptr %add.ptr, ptr %pos, align 8
  ret void
}